; Function Attrs: uwtable
define void @_ZThn8_N8proxygen16HTTPCodecPrinter17onMessageCompleteEmb(ptr nocapture noundef readonly %this, i64 noundef %stream, i1 noundef zeroext %upgrade) unnamed_addr #4 align 2 {
entry:
  %call.i = tail call noundef nonnull align 8 dereferenceable(8) ptr @_ZStlsISt11char_traitsIcEERSt13basic_ostreamIcT_ES5_PKc(ptr noundef nonnull align 8 dereferenceable(8) @_ZSt4cout, ptr noundef nonnull @.str.7)
  %call2.i = tail call noundef nonnull align 8 dereferenceable(8) ptr @_ZNSolsEm(ptr noundef nonnull align 8 dereferenceable(8) %call.i, i64 noundef %stream)
  %call3.i = tail call noundef nonnull align 8 dereferenceable(8) ptr @_ZNSolsEPFRSoS_E(ptr noundef nonnull align 8 dereferenceable(8) %call2.i, ptr noundef nonnull @_ZSt4endlIcSt11char_traitsIcEERSt13basic_ostreamIT_T0_ES6_)
  %callback_.i = getelementptr inbounds i8, ptr %this, i64 24
  %0 = load ptr, ptr %callback_.i, align 8
  %vtable.i = load ptr, ptr %0, align 8
  %vfn.i = getelementptr inbounds i8, ptr %vtable.i, i64 64
  %1 = load ptr, ptr %vfn.i, align 8
  tail call void %1(ptr noundef nonnull align 8 dereferenceable(8) %0, i64 noundef %stream, i1 noundef zeroext %upgrade)
  ret void
}